target datalayout = "e-m:e-p270:32:32-p271:32:32-p272:64:64-i64:64-i128:128-f80:128-n8:16:32:64-S128"
target triple = "x86_64-pc-linux-gnu"

%struct.mspack_system = type { ptr, ptr, ptr, ptr, ptr, ptr, ptr, ptr, ptr, ptr, ptr }
%struct.mschm_decompressor_p = type { %struct.mschm_decompressor, ptr, ptr, i32 }
%struct.mschm_decompressor = type { ptr, ptr, ptr, ptr, ptr, ptr }
%struct.mschmd_decompress_state = type { ptr, i64, i64, i64, ptr, %struct.mspack_system, ptr, ptr }

; Function Attrs: nounwind uwtable
define void @mspack_destroy_chm_decompressor(ptr noundef %0) #0 {
  %2 = alloca ptr, align 8
  %3 = alloca ptr, align 8
  %4 = alloca ptr, align 8
  store ptr %0, ptr %2, align 8
  %5 = load ptr, ptr %2, align 8
  store ptr %5, ptr %3, align 8
  %6 = load ptr, ptr %3, align 8
  %7 = icmp ne ptr %6, null
  br i1 %7, label %8, label %57

8:                                                ; preds = %1
  %9 = load ptr, ptr %3, align 8
  %10 = getelementptr inbounds %struct.mschm_decompressor_p, ptr %9, i32 0, i32 1
  %11 = load ptr, ptr %10, align 8
  store ptr %11, ptr %4, align 8
  %12 = load ptr, ptr %3, align 8
  %13 = getelementptr inbounds %struct.mschm_decompressor_p, ptr %12, i32 0, i32 2
  %14 = load ptr, ptr %13, align 8
  %15 = icmp ne ptr %14, null
  br i1 %15, label %16, label %52

16:                                               ; preds = %8
  %17 = load ptr, ptr %3, align 8
  %18 = getelementptr inbounds %struct.mschm_decompressor_p, ptr %17, i32 0, i32 2
  %19 = load ptr, ptr %18, align 8
  %20 = getelementptr inbounds %struct.mschmd_decompress_state, ptr %19, i32 0, i32 6
  %21 = load ptr, ptr %20, align 8
  %22 = icmp ne ptr %21, null
  br i1 %22, label %23, label %32

23:                                               ; preds = %16
  %24 = load ptr, ptr %4, align 8
  %25 = getelementptr inbounds %struct.mspack_system, ptr %24, i32 0, i32 1
  %26 = load ptr, ptr %25, align 8
  %27 = load ptr, ptr %3, align 8
  %28 = getelementptr inbounds %struct.mschm_decompressor_p, ptr %27, i32 0, i32 2
  %29 = load ptr, ptr %28, align 8
  %30 = getelementptr inbounds %struct.mschmd_decompress_state, ptr %29, i32 0, i32 6
  %31 = load ptr, ptr %30, align 8
  call void %26(ptr noundef %31)
  br label %32

32:                                               ; preds = %23, %16
  %33 = load ptr, ptr %3, align 8
  %34 = getelementptr inbounds %struct.mschm_decompressor_p, ptr %33, i32 0, i32 2
  %35 = load ptr, ptr %34, align 8
  %36 = getelementptr inbounds %struct.mschmd_decompress_state, ptr %35, i32 0, i32 4
  %37 = load ptr, ptr %36, align 8
  %38 = icmp ne ptr %37, null
  br i1 %38, label %39, label %45

39:                                               ; preds = %32
  %40 = load ptr, ptr %3, align 8
  %41 = getelementptr inbounds %struct.mschm_decompressor_p, ptr %40, i32 0, i32 2
  %42 = load ptr, ptr %41, align 8
  %43 = getelementptr inbounds %struct.mschmd_decompress_state, ptr %42, i32 0, i32 4
  %44 = load ptr, ptr %43, align 8
  call void @lzxd_free(ptr noundef %44)
  br label %45

45:                                               ; preds = %39, %32
  %46 = load ptr, ptr %4, align 8
  %47 = getelementptr inbounds %struct.mspack_system, ptr %46, i32 0, i32 8
  %48 = load ptr, ptr %47, align 8
  %49 = load ptr, ptr %3, align 8
  %50 = getelementptr inbounds %struct.mschm_decompressor_p, ptr %49, i32 0, i32 2
  %51 = load ptr, ptr %50, align 8
  call void %48(ptr noundef %51)
  br label %52

52:                                               ; preds = %45, %8
  %53 = load ptr, ptr %4, align 8
  %54 = getelementptr inbounds %struct.mspack_system, ptr %53, i32 0, i32 8
  %55 = load ptr, ptr %54, align 8
  %56 = load ptr, ptr %3, align 8
  call void %55(ptr noundef %56)
  br label %57

57:                                               ; preds = %52, %1
  ret void
}