; Function Attrs: nounwind uwtable
define void @mspack_destroy_chm_decompressor(ptr noundef %0) local_unnamed_addr #0 {
  %.not = icmp eq ptr %0, null
  br i1 %.not, label %25, label %2

2:                                                ; preds = %1
  %3 = getelementptr inbounds i8, ptr %0, i64 48
  %4 = load ptr, ptr %3, align 8
  %5 = getelementptr inbounds i8, ptr %0, i64 56
  %6 = load ptr, ptr %5, align 8
  %.not16 = icmp eq ptr %6, null
  br i1 %.not16, label %22, label %7

7:                                                ; preds = %2
  %8 = getelementptr inbounds i8, ptr %6, i64 128
  %9 = load ptr, ptr %8, align 8
  %.not17 = icmp eq ptr %9, null
  br i1 %.not17, label %13, label %10

10:                                               ; preds = %7
  %11 = getelementptr inbounds i8, ptr %4, i64 8
  %12 = load ptr, ptr %11, align 8
  tail call void %12(ptr noundef nonnull %9) #12
  %.pre = load ptr, ptr %5, align 8
  br label %13

13:                                               ; preds = %10, %7
  %14 = phi ptr [ %.pre, %10 ], [ %6, %7 ]
  %15 = getelementptr inbounds i8, ptr %14, i64 32
  %16 = load ptr, ptr %15, align 8
  %.not18 = icmp eq ptr %16, null
  br i1 %.not18, label %18, label %17

17:                                               ; preds = %13
  tail call void @lzxd_free(ptr noundef nonnull %16) #12
  %.pre19 = load ptr, ptr %5, align 8
  br label %18

18:                                               ; preds = %17, %13
  %19 = phi ptr [ %.pre19, %17 ], [ %14, %13 ]
  %20 = getelementptr inbounds i8, ptr %4, i64 64
  %21 = load ptr, ptr %20, align 8
  tail call void %21(ptr noundef %19) #12
  br label %22

22:                                               ; preds = %18, %2
  %23 = getelementptr inbounds i8, ptr %4, i64 64
  %24 = load ptr, ptr %23, align 8
  tail call void %24(ptr noundef nonnull %0) #12
  br label %25

25:                                               ; preds = %22, %1
  ret void
}